target datalayout = "e-m:e-p270:32:32-p271:32:32-p272:64:64-i64:64-i128:128-f80:128-n8:16:32:64-S128"
target triple = "x86_64-unknown-linux-gnu"

%"struct.facebook::velox::StlAllocator" = type { ptr }
%"struct.facebook::velox::StlAllocator.2" = type { ptr }
%"class.facebook::velox::common::hll::DenseHll" = type { i8, i8, i32, %"class.std::vector", i16, %"class.std::vector.0", %"class.std::vector" }
%"class.std::vector.0" = type { %"struct.std::_Vector_base.1" }
%"struct.std::_Vector_base.1" = type { %"struct.std::_Vector_base<unsigned short, facebook::velox::StlAllocator<unsigned short>>::_Vector_impl" }
%"struct.std::_Vector_base<unsigned short, facebook::velox::StlAllocator<unsigned short>>::_Vector_impl" = type { %"struct.facebook::velox::StlAllocator.2", %"struct.std::_Vector_base<unsigned short, facebook::velox::StlAllocator<unsigned short>>::_Vector_impl_data" }
%"struct.std::_Vector_base<unsigned short, facebook::velox::StlAllocator<unsigned short>>::_Vector_impl_data" = type { ptr, ptr, ptr }
%"class.std::vector" = type { %"struct.std::_Vector_base" }
%"struct.std::_Vector_base" = type { %"struct.std::_Vector_base<signed char, facebook::velox::StlAllocator<signed char>>::_Vector_impl" }
%"struct.std::_Vector_base<signed char, facebook::velox::StlAllocator<signed char>>::_Vector_impl" = type { %"struct.facebook::velox::StlAllocator", %"struct.std::_Vector_base<signed char, facebook::velox::StlAllocator<signed char>>::_Vector_impl_data" }
%"struct.std::_Vector_base<signed char, facebook::velox::StlAllocator<signed char>>::_Vector_impl_data" = type { ptr, ptr, ptr }

; Function Attrs: mustprogress nounwind uwtable
define internal noundef signext i8 @_ZN8facebook5velox6common3hll12_GLOBAL__N_114shiftForBucketEi(i32 noundef %index) #1 {
entry:
  %index.addr = alloca i32, align 4
  store i32 %index, ptr %index.addr, align 4
  %0 = load i32, ptr %index.addr, align 4
  %not = xor i32 %0, -1
  %and = and i32 %not, 1
  %shl = shl i32 %and, 2
  %conv = trunc i32 %shl to i8
  ret i8 %conv
}

; Function Attrs: mustprogress nounwind uwtable
define linkonce_odr noundef nonnull align 1 dereferenceable(1) ptr @_ZNKSt6vectorIaN8facebook5velox12StlAllocatorIaEEEixEm(ptr noundef nonnull align 8 dereferenceable(32) %this, i64 noundef %__n) #1 comdat align 2 {
entry:
  %this.addr = alloca ptr, align 8
  %__n.addr = alloca i64, align 8
  store ptr %this, ptr %this.addr, align 8
  store i64 %__n, ptr %__n.addr, align 8
  %this1 = load ptr, ptr %this.addr, align 8
  %_M_impl = getelementptr inbounds %"struct.std::_Vector_base", ptr %this1, i32 0, i32 0
  %add.ptr = getelementptr inbounds i8, ptr %_M_impl, i64 8
  %_M_start = getelementptr inbounds %"struct.std::_Vector_base<signed char, facebook::velox::StlAllocator<signed char>>::_Vector_impl_data", ptr %add.ptr, i32 0, i32 0
  %0 = load ptr, ptr %_M_start, align 8
  %1 = load i64, ptr %__n.addr, align 8
  %add.ptr2 = getelementptr inbounds i8, ptr %0, i64 %1
  ret ptr %add.ptr2
}

; Function Attrs: mustprogress uwtable
define void @_ZN8facebook5velox6common3hll8DenseHll8setDeltaEia(ptr noundef nonnull align 8 dereferenceable(112) %this, i32 noundef %index, i8 noundef signext %value) #0 align 2 {
entry:
  %this.addr = alloca ptr, align 8
  %index.addr = alloca i32, align 4
  %value.addr = alloca i8, align 1
  %slot = alloca i32, align 4
  %clearMask = alloca i8, align 1
  %setMask = alloca i8, align 1
  store ptr %this, ptr %this.addr, align 8
  store i32 %index, ptr %index.addr, align 4
  store i8 %value, ptr %value.addr, align 1
  %this1 = load ptr, ptr %this.addr, align 8
  %0 = load i32, ptr %index.addr, align 4
  %shr = ashr i32 %0, 1
  store i32 %shr, ptr %slot, align 4
  %1 = load i32, ptr %index.addr, align 4
  %call = call noundef signext i8 @_ZN8facebook5velox6common3hll12_GLOBAL__N_114shiftForBucketEi(i32 noundef %1)
  %conv = sext i8 %call to i32
  %shl = shl i32 15, %conv
  %conv2 = trunc i32 %shl to i8
  store i8 %conv2, ptr %clearMask, align 1
  %2 = load i8, ptr %clearMask, align 1
  %conv3 = sext i8 %2 to i32
  %not = xor i32 %conv3, -1
  %deltas_ = getelementptr inbounds %"class.facebook::velox::common::hll::DenseHll", ptr %this1, i32 0, i32 3
  %3 = load i32, ptr %slot, align 4
  %conv4 = sext i32 %3 to i64
  %call5 = call noundef nonnull align 1 dereferenceable(1) ptr @_ZNSt6vectorIaN8facebook5velox12StlAllocatorIaEEEixEm(ptr noundef nonnull align 8 dereferenceable(32) %deltas_, i64 noundef %conv4) #9
  %4 = load i8, ptr %call5, align 1
  %conv6 = sext i8 %4 to i32
  %and = and i32 %conv6, %not
  %conv7 = trunc i32 %and to i8
  store i8 %conv7, ptr %call5, align 1
  %5 = load i8, ptr %value.addr, align 1
  %conv8 = sext i8 %5 to i32
  %6 = load i32, ptr %index.addr, align 4
  %call9 = call noundef signext i8 @_ZN8facebook5velox6common3hll12_GLOBAL__N_114shiftForBucketEi(i32 noundef %6)
  %conv10 = sext i8 %call9 to i32
  %shl11 = shl i32 %conv8, %conv10
  %conv12 = trunc i32 %shl11 to i8
  store i8 %conv12, ptr %setMask, align 1
  %7 = load i8, ptr %setMask, align 1
  %conv13 = sext i8 %7 to i32
  %deltas_14 = getelementptr inbounds %"class.facebook::velox::common::hll::DenseHll", ptr %this1, i32 0, i32 3
  %8 = load i32, ptr %slot, align 4
  %conv15 = sext i32 %8 to i64
  %call16 = call noundef nonnull align 1 dereferenceable(1) ptr @_ZNSt6vectorIaN8facebook5velox12StlAllocatorIaEEEixEm(ptr noundef nonnull align 8 dereferenceable(32) %deltas_14, i64 noundef %conv15) #9
  %9 = load i8, ptr %call16, align 1
  %conv17 = sext i8 %9 to i32
  %or = or i32 %conv17, %conv13
  %conv18 = trunc i32 %or to i8
  store i8 %conv18, ptr %call16, align 1
  ret void
}

; Function Attrs: mustprogress nounwind uwtable
define linkonce_odr noundef nonnull align 1 dereferenceable(1) ptr @_ZNSt6vectorIaN8facebook5velox12StlAllocatorIaEEEixEm(ptr noundef nonnull align 8 dereferenceable(32) %this, i64 noundef %__n) #1 comdat align 2 {
entry:
  %this.addr = alloca ptr, align 8
  %__n.addr = alloca i64, align 8
  store ptr %this, ptr %this.addr, align 8
  store i64 %__n, ptr %__n.addr, align 8
  %this1 = load ptr, ptr %this.addr, align 8
  %_M_impl = getelementptr inbounds %"struct.std::_Vector_base", ptr %this1, i32 0, i32 0
  %add.ptr = getelementptr inbounds i8, ptr %_M_impl, i64 8
  %_M_start = getelementptr inbounds %"struct.std::_Vector_base<signed char, facebook::velox::StlAllocator<signed char>>::_Vector_impl_data", ptr %add.ptr, i32 0, i32 0
  %0 = load ptr, ptr %_M_start, align 8
  %1 = load i64, ptr %__n.addr, align 8
  %add.ptr2 = getelementptr inbounds i8, ptr %0, i64 %1
  ret ptr %add.ptr2
}

; Function Attrs: mustprogress nounwind uwtable
define linkonce_odr noundef nonnull align 2 dereferenceable(2) ptr @_ZNSt6vectorItN8facebook5velox12StlAllocatorItEEEixEm(ptr noundef nonnull align 8 dereferenceable(32) %this, i64 noundef %__n) #1 comdat align 2 {
entry:
  %this.addr = alloca ptr, align 8
  %__n.addr = alloca i64, align 8
  store ptr %this, ptr %this.addr, align 8
  store i64 %__n, ptr %__n.addr, align 8
  %this1 = load ptr, ptr %this.addr, align 8
  %_M_impl = getelementptr inbounds %"struct.std::_Vector_base.1", ptr %this1, i32 0, i32 0
  %add.ptr = getelementptr inbounds i8, ptr %_M_impl, i64 8
  %_M_start = getelementptr inbounds %"struct.std::_Vector_base<unsigned short, facebook::velox::StlAllocator<unsigned short>>::_Vector_impl_data", ptr %add.ptr, i32 0, i32 0
  %0 = load ptr, ptr %_M_start, align 8
  %1 = load i64, ptr %__n.addr, align 8
  %add.ptr2 = getelementptr inbounds i16, ptr %0, i64 %1
  ret ptr %add.ptr2
}

; Function Attrs: mustprogress uwtable
define noundef signext i8 @_ZNK8facebook5velox6common3hll8DenseHll8getDeltaEi(ptr noundef nonnull align 8 dereferenceable(112) %this, i32 noundef %index) #0 align 2 {
entry:
  %this.addr = alloca ptr, align 8
  %index.addr = alloca i32, align 4
  %slot = alloca i32, align 4
  store ptr %this, ptr %this.addr, align 8
  store i32 %index, ptr %index.addr, align 4
  %this1 = load ptr, ptr %this.addr, align 8
  %0 = load i32, ptr %index.addr, align 4
  %shr = ashr i32 %0, 1
  store i32 %shr, ptr %slot, align 4
  %deltas_ = getelementptr inbounds %"class.facebook::velox::common::hll::DenseHll", ptr %this1, i32 0, i32 3
  %1 = load i32, ptr %slot, align 4
  %conv = sext i32 %1 to i64
  %call = call noundef nonnull align 1 dereferenceable(1) ptr @_ZNKSt6vectorIaN8facebook5velox12StlAllocatorIaEEEixEm(ptr noundef nonnull align 8 dereferenceable(32) %deltas_, i64 noundef %conv) #9
  %2 = load i8, ptr %call, align 1
  %conv2 = sext i8 %2 to i32
  %3 = load i32, ptr %index.addr, align 4
  %call3 = call noundef signext i8 @_ZN8facebook5velox6common3hll12_GLOBAL__N_114shiftForBucketEi(i32 noundef %3)
  %conv4 = sext i8 %call3 to i32
  %shr5 = ashr i32 %conv2, %conv4
  %and = and i32 %shr5, 15
  %conv6 = trunc i32 %and to i8
  ret i8 %conv6
}

; Function Attrs: mustprogress uwtable
define void @_ZN8facebook5velox6common3hll8DenseHll22adjustBaselineIfNeededEv(ptr noundef nonnull align 8 dereferenceable(112) %this) #0 align 2 {
entry:
  %this.addr = alloca ptr, align 8
  %numBuckets = alloca i32, align 4
  %bucket = alloca i32, align 4
  %delta = alloca i32, align 4
  %hasOverflow = alloca i8, align 1
  %i = alloca i32, align 4
  %lastEntry = alloca i32, align 4
  store ptr %this, ptr %this.addr, align 8
  %this1 = load ptr, ptr %this.addr, align 8
  %indexBitLength_ = getelementptr inbounds %"class.facebook::velox::common::hll::DenseHll", ptr %this1, i32 0, i32 0
  %0 = load i8, ptr %indexBitLength_, align 8
  %conv = sext i8 %0 to i32
  %shl = shl i32 1, %conv
  store i32 %shl, ptr %numBuckets, align 4
  br label %while.cond

while.cond:                                       ; preds = %for.end61, %entry
  %baselineCount_ = getelementptr inbounds %"class.facebook::velox::common::hll::DenseHll", ptr %this1, i32 0, i32 2
  %1 = load i32, ptr %baselineCount_, align 4
  %cmp = icmp eq i32 %1, 0
  br i1 %cmp, label %while.body, label %while.end

while.body:                                       ; preds = %while.cond
  %baseline_ = getelementptr inbounds %"class.facebook::velox::common::hll::DenseHll", ptr %this1, i32 0, i32 1
  %2 = load i8, ptr %baseline_, align 1
  %inc = add i8 %2, 1
  store i8 %inc, ptr %baseline_, align 1
  store i32 0, ptr %bucket, align 4
  br label %for.cond

for.cond:                                         ; preds = %for.inc59, %while.body
  %3 = load i32, ptr %bucket, align 4
  %4 = load i32, ptr %numBuckets, align 4
  %cmp2 = icmp slt i32 %3, %4
  br i1 %cmp2, label %for.body, label %for.end61

for.body:                                         ; preds = %for.cond
  %5 = load i32, ptr %bucket, align 4
  %call = call noundef signext i8 @_ZNK8facebook5velox6common3hll8DenseHll8getDeltaEi(ptr noundef nonnull align 8 dereferenceable(112) %this1, i32 noundef %5)
  %conv3 = sext i8 %call to i32
  store i32 %conv3, ptr %delta, align 4
  store i8 0, ptr %hasOverflow, align 1
  %6 = load i32, ptr %delta, align 4
  %cmp4 = icmp eq i32 %6, 15
  br i1 %cmp4, label %if.then, label %if.end49

if.then:                                          ; preds = %for.body
  store i32 0, ptr %i, align 4
  br label %for.cond5

for.cond5:                                        ; preds = %for.inc, %if.then
  %7 = load i32, ptr %i, align 4
  %overflows_ = getelementptr inbounds %"class.facebook::velox::common::hll::DenseHll", ptr %this1, i32 0, i32 4
  %8 = load i16, ptr %overflows_, align 8
  %conv6 = sext i16 %8 to i32
  %cmp7 = icmp slt i32 %7, %conv6
  br i1 %cmp7, label %for.body8, label %for.end

for.body8:                                        ; preds = %for.cond5
  %overflowBuckets_ = getelementptr inbounds %"class.facebook::velox::common::hll::DenseHll", ptr %this1, i32 0, i32 5
  %9 = load i32, ptr %i, align 4
  %conv9 = sext i32 %9 to i64
  %call10 = call noundef nonnull align 2 dereferenceable(2) ptr @_ZNSt6vectorItN8facebook5velox12StlAllocatorItEEEixEm(ptr noundef nonnull align 8 dereferenceable(32) %overflowBuckets_, i64 noundef %conv9) #9
  %10 = load i16, ptr %call10, align 2
  %conv11 = zext i16 %10 to i32
  %11 = load i32, ptr %bucket, align 4
  %cmp12 = icmp eq i32 %conv11, %11
  br i1 %cmp12, label %if.then13, label %if.end47

if.then13:                                        ; preds = %for.body8
  store i8 1, ptr %hasOverflow, align 1
  %overflowValues_ = getelementptr inbounds %"class.facebook::velox::common::hll::DenseHll", ptr %this1, i32 0, i32 6
  %12 = load i32, ptr %i, align 4
  %conv14 = sext i32 %12 to i64
  %call15 = call noundef nonnull align 1 dereferenceable(1) ptr @_ZNSt6vectorIaN8facebook5velox12StlAllocatorIaEEEixEm(ptr noundef nonnull align 8 dereferenceable(32) %overflowValues_, i64 noundef %conv14) #9
  %13 = load i8, ptr %call15, align 1
  %dec = add i8 %13, -1
  store i8 %dec, ptr %call15, align 1
  %overflowValues_16 = getelementptr inbounds %"class.facebook::velox::common::hll::DenseHll", ptr %this1, i32 0, i32 6
  %14 = load i32, ptr %i, align 4
  %conv17 = sext i32 %14 to i64
  %call18 = call noundef nonnull align 1 dereferenceable(1) ptr @_ZNSt6vectorIaN8facebook5velox12StlAllocatorIaEEEixEm(ptr noundef nonnull align 8 dereferenceable(32) %overflowValues_16, i64 noundef %conv17) #9
  %15 = load i8, ptr %call18, align 1
  %conv19 = sext i8 %15 to i32
  %cmp20 = icmp eq i32 %conv19, 0
  br i1 %cmp20, label %if.then21, label %if.end46

if.then21:                                        ; preds = %if.then13
  %overflows_22 = getelementptr inbounds %"class.facebook::velox::common::hll::DenseHll", ptr %this1, i32 0, i32 4
  %16 = load i16, ptr %overflows_22, align 8
  %conv23 = sext i16 %16 to i32
  %sub = sub nsw i32 %conv23, 1
  store i32 %sub, ptr %lastEntry, align 4
  %17 = load i32, ptr %i, align 4
  %18 = load i32, ptr %lastEntry, align 4
  %cmp24 = icmp slt i32 %17, %18
  br i1 %cmp24, label %if.then25, label %if.end

if.then25:                                        ; preds = %if.then21
  %overflowBuckets_26 = getelementptr inbounds %"class.facebook::velox::common::hll::DenseHll", ptr %this1, i32 0, i32 5
  %19 = load i32, ptr %lastEntry, align 4
  %conv27 = sext i32 %19 to i64
  %call28 = call noundef nonnull align 2 dereferenceable(2) ptr @_ZNSt6vectorItN8facebook5velox12StlAllocatorItEEEixEm(ptr noundef nonnull align 8 dereferenceable(32) %overflowBuckets_26, i64 noundef %conv27) #9
  %20 = load i16, ptr %call28, align 2
  %overflowBuckets_29 = getelementptr inbounds %"class.facebook::velox::common::hll::DenseHll", ptr %this1, i32 0, i32 5
  %21 = load i32, ptr %i, align 4
  %conv30 = sext i32 %21 to i64
  %call31 = call noundef nonnull align 2 dereferenceable(2) ptr @_ZNSt6vectorItN8facebook5velox12StlAllocatorItEEEixEm(ptr noundef nonnull align 8 dereferenceable(32) %overflowBuckets_29, i64 noundef %conv30) #9
  store i16 %20, ptr %call31, align 2
  %overflowValues_32 = getelementptr inbounds %"class.facebook::velox::common::hll::DenseHll", ptr %this1, i32 0, i32 6
  %22 = load i32, ptr %lastEntry, align 4
  %conv33 = sext i32 %22 to i64
  %call34 = call noundef nonnull align 1 dereferenceable(1) ptr @_ZNSt6vectorIaN8facebook5velox12StlAllocatorIaEEEixEm(ptr noundef nonnull align 8 dereferenceable(32) %overflowValues_32, i64 noundef %conv33) #9
  %23 = load i8, ptr %call34, align 1
  %overflowValues_35 = getelementptr inbounds %"class.facebook::velox::common::hll::DenseHll", ptr %this1, i32 0, i32 6
  %24 = load i32, ptr %i, align 4
  %conv36 = sext i32 %24 to i64
  %call37 = call noundef nonnull align 1 dereferenceable(1) ptr @_ZNSt6vectorIaN8facebook5velox12StlAllocatorIaEEEixEm(ptr noundef nonnull align 8 dereferenceable(32) %overflowValues_35, i64 noundef %conv36) #9
  store i8 %23, ptr %call37, align 1
  %overflowBuckets_38 = getelementptr inbounds %"class.facebook::velox::common::hll::DenseHll", ptr %this1, i32 0, i32 5
  %25 = load i32, ptr %lastEntry, align 4
  %conv39 = sext i32 %25 to i64
  %call40 = call noundef nonnull align 2 dereferenceable(2) ptr @_ZNSt6vectorItN8facebook5velox12StlAllocatorItEEEixEm(ptr noundef nonnull align 8 dereferenceable(32) %overflowBuckets_38, i64 noundef %conv39) #9
  store i16 0, ptr %call40, align 2
  %overflowValues_41 = getelementptr inbounds %"class.facebook::velox::common::hll::DenseHll", ptr %this1, i32 0, i32 6
  %26 = load i32, ptr %lastEntry, align 4
  %conv42 = sext i32 %26 to i64
  %call43 = call noundef nonnull align 1 dereferenceable(1) ptr @_ZNSt6vectorIaN8facebook5velox12StlAllocatorIaEEEixEm(ptr noundef nonnull align 8 dereferenceable(32) %overflowValues_41, i64 noundef %conv42) #9
  store i8 0, ptr %call43, align 1
  br label %if.end

if.end:                                           ; preds = %if.then25, %if.then21
  %overflows_44 = getelementptr inbounds %"class.facebook::velox::common::hll::DenseHll", ptr %this1, i32 0, i32 4
  %27 = load i16, ptr %overflows_44, align 8
  %dec45 = add i16 %27, -1
  store i16 %dec45, ptr %overflows_44, align 8
  br label %if.end46

if.end46:                                         ; preds = %if.end, %if.then13
  br label %for.end

if.end47:                                         ; preds = %for.body8
  br label %for.inc

for.inc:                                          ; preds = %if.end47
  %28 = load i32, ptr %i, align 4
  %inc48 = add nsw i32 %28, 1
  store i32 %inc48, ptr %i, align 4
  br label %for.cond5, !llvm.loop !6

for.end:                                          ; preds = %if.end46, %for.cond5
  br label %if.end49

if.end49:                                         ; preds = %for.end, %for.body
  %29 = load i8, ptr %hasOverflow, align 1
  %tobool = trunc i8 %29 to i1
  br i1 %tobool, label %if.end53, label %if.then50

if.then50:                                        ; preds = %if.end49
  %30 = load i32, ptr %delta, align 4
  %dec51 = add nsw i32 %30, -1
  store i32 %dec51, ptr %delta, align 4
  %31 = load i32, ptr %bucket, align 4
  %32 = load i32, ptr %delta, align 4
  %conv52 = trunc i32 %32 to i8
  call void @_ZN8facebook5velox6common3hll8DenseHll8setDeltaEia(ptr noundef nonnull align 8 dereferenceable(112) %this1, i32 noundef %31, i8 noundef signext %conv52)
  br label %if.end53

if.end53:                                         ; preds = %if.then50, %if.end49
  %33 = load i32, ptr %delta, align 4
  %cmp54 = icmp eq i32 %33, 0
  br i1 %cmp54, label %if.then55, label %if.end58

if.then55:                                        ; preds = %if.end53
  %baselineCount_56 = getelementptr inbounds %"class.facebook::velox::common::hll::DenseHll", ptr %this1, i32 0, i32 2
  %34 = load i32, ptr %baselineCount_56, align 4
  %inc57 = add nsw i32 %34, 1
  store i32 %inc57, ptr %baselineCount_56, align 4
  br label %if.end58

if.end58:                                         ; preds = %if.then55, %if.end53
  br label %for.inc59

for.inc59:                                        ; preds = %if.end58
  %35 = load i32, ptr %bucket, align 4
  %inc60 = add nsw i32 %35, 1
  store i32 %inc60, ptr %bucket, align 4
  br label %for.cond, !llvm.loop !7

for.end61:                                        ; preds = %for.cond
  br label %while.cond, !llvm.loop !8

while.end:                                        ; preds = %while.cond
  ret void
}