; Function Attrs: mustprogress nofree norecurse nosync nounwind memory(readwrite, inaccessiblemem: write) uwtable
define void @_ZN8facebook5velox6common3hll8DenseHll22adjustBaselineIfNeededEv(ptr noundef nonnull align 8 captures(none) dereferenceable(112) %this) local_unnamed_addr #5 align 2 {
entry:
  %baselineCount_ = getelementptr inbounds nuw i8, ptr %this, i64 4
  %0 = load i32, ptr %baselineCount_, align 4
  %cmp50 = icmp eq i32 %0, 0
  br i1 %cmp50, label %while.body.lr.ph, label %while.end

while.body.lr.ph:                                 ; preds = %entry
  %1 = load i8, ptr %this, align 8
  %conv20 = zext nneg i8 %1 to i32
  %shl = shl nuw i32 1, %conv20
  %baseline_ = getelementptr inbounds nuw i8, ptr %this, i64 1
  %cmp246.not = icmp ne i8 %1, 31
  %add.ptr.i.i = getelementptr inbounds nuw i8, ptr %this, i64 16
  %overflows_ = getelementptr inbounds nuw i8, ptr %this, i64 40
  %add.ptr.i = getelementptr inbounds nuw i8, ptr %this, i64 56
  %add.ptr.i21 = getelementptr inbounds nuw i8, ptr %this, i64 88
  tail call void @llvm.assume(i1 %cmp246.not)
  %smax = tail call i32 @llvm.smax.i32(i32 %shl, i32 1)
  br label %while.body.us

while.body.us:                                    ; preds = %while.body.lr.ph, %for.cond.while.cond.loopexit_crit_edge.us
  %2 = load i8, ptr %baseline_, align 1
  %inc.us = add i8 %2, 1
  store i8 %inc.us, ptr %baseline_, align 1
  br label %for.body.us

for.body.us:                                      ; preds = %while.body.us, %for.inc59.us
  %bucket.047.us = phi i32 [ 0, %while.body.us ], [ %inc60.us, %for.inc59.us ]
  %shr.i.us = lshr i32 %bucket.047.us, 1
  %conv.i.us = zext nneg i32 %shr.i.us to i64
  %3 = load ptr, ptr %add.ptr.i.i, align 8
  %add.ptr2.i.i.us = getelementptr inbounds nuw i8, ptr %3, i64 %conv.i.us
  %4 = load i8, ptr %add.ptr2.i.i.us, align 1
  %index.tr.i.i.us = trunc i32 %bucket.047.us to i8
  %5 = shl i8 %index.tr.i.i.us, 2
  %6 = and i8 %5, 4
  %conv.i.i.us = xor i8 %6, 4
  %shr5.i.us = ashr i8 %4, %conv.i.i.us
  %and.i.us = and i8 %shr5.i.us, 15
  %conv3.us = zext nneg i8 %and.i.us to i32
  %cmp4.us = icmp eq i8 %and.i.us, 15
  br i1 %cmp4.us, label %for.cond5.preheader.us, label %if.then50.us

if.then50.us:                                     ; preds = %for.inc.us, %for.cond5.preheader.us, %for.body.us
  %dec51.us = add nsw i32 %conv3.us, -1
  %conv52.us = trunc nsw i32 %dec51.us to i8
  %shl.i.us = shl nuw i8 15, %conv.i.i.us
  %7 = xor i8 %shl.i.us, -1
  %and4.i.us = and i8 %4, %7
  store i8 %and4.i.us, ptr %add.ptr2.i.i.us, align 1
  %shl11.i.us = shl i8 %conv52.us, %conv.i.i.us
  %8 = load ptr, ptr %add.ptr.i.i, align 8
  %add.ptr2.i9.i.us = getelementptr inbounds nuw i8, ptr %8, i64 %conv.i.us
  %9 = load i8, ptr %add.ptr2.i9.i.us, align 1
  %or5.i.us = or i8 %9, %shl11.i.us
  store i8 %or5.i.us, ptr %add.ptr2.i9.i.us, align 1
  %10 = icmp eq i32 %dec51.us, 0
  br i1 %10, label %if.then55.us, label %for.inc59.us

if.then55.us:                                     ; preds = %if.then50.us
  %11 = load i32, ptr %baselineCount_, align 4
  %inc57.us = add nsw i32 %11, 1
  store i32 %inc57.us, ptr %baselineCount_, align 4
  br label %for.inc59.us

for.body8.us:                                     ; preds = %for.body8.lr.ph.us, %for.inc.us
  %indvars.iv = phi i64 [ 0, %for.body8.lr.ph.us ], [ %indvars.iv.next, %for.inc.us ]
  %add.ptr2.i.us = getelementptr inbounds nuw i16, ptr %27, i64 %indvars.iv
  %12 = load i16, ptr %add.ptr2.i.us, align 2
  %conv11.us = zext i16 %12 to i32
  %cmp12.us = icmp eq i32 %bucket.047.us, %conv11.us
  br i1 %cmp12.us, label %if.then13.us, label %for.inc.us

for.inc.us:                                       ; preds = %for.body8.us
  %indvars.iv.next = add nuw nsw i64 %indvars.iv, 1
  %exitcond.not = icmp eq i64 %indvars.iv.next, %conv6.us
  br i1 %exitcond.not, label %if.then50.us, label %for.body8.us, !llvm.loop !7

if.then13.us:                                     ; preds = %for.body8.us
  %13 = load ptr, ptr %add.ptr.i21, align 8
  %add.ptr2.i22.us = getelementptr inbounds nuw i8, ptr %13, i64 %indvars.iv
  %14 = load i8, ptr %add.ptr2.i22.us, align 1
  %dec.us = add i8 %14, -1
  store i8 %dec.us, ptr %add.ptr2.i22.us, align 1
  %15 = load ptr, ptr %add.ptr.i21, align 8
  %add.ptr2.i24.us = getelementptr inbounds nuw i8, ptr %15, i64 %indvars.iv
  %16 = load i8, ptr %add.ptr2.i24.us, align 1
  %cmp20.us = icmp eq i8 %16, 0
  br i1 %cmp20.us, label %if.then21.us, label %for.inc59.us

if.then21.us:                                     ; preds = %if.then13.us
  %17 = trunc nuw nsw i64 %indvars.iv to i32
  %18 = load i16, ptr %overflows_, align 8
  %conv23.us = sext i16 %18 to i32
  %sub.us = add nsw i32 %conv23.us, -1
  %cmp24.us = icmp sgt i32 %sub.us, %17
  br i1 %cmp24.us, label %if.then25.us, label %if.end.us

if.then25.us:                                     ; preds = %if.then21.us
  %conv27.us = sext i32 %sub.us to i64
  %19 = load ptr, ptr %add.ptr.i, align 8
  %add.ptr2.i26.us = getelementptr inbounds i16, ptr %19, i64 %conv27.us
  %20 = load i16, ptr %add.ptr2.i26.us, align 2
  %add.ptr2.i28.us = getelementptr inbounds nuw i16, ptr %19, i64 %indvars.iv
  store i16 %20, ptr %add.ptr2.i28.us, align 2
  %21 = load ptr, ptr %add.ptr.i21, align 8
  %add.ptr2.i30.us = getelementptr inbounds i8, ptr %21, i64 %conv27.us
  %22 = load i8, ptr %add.ptr2.i30.us, align 1
  %add.ptr2.i32.us = getelementptr inbounds nuw i8, ptr %21, i64 %indvars.iv
  store i8 %22, ptr %add.ptr2.i32.us, align 1
  %23 = load ptr, ptr %add.ptr.i, align 8
  %add.ptr2.i34.us = getelementptr inbounds i16, ptr %23, i64 %conv27.us
  store i16 0, ptr %add.ptr2.i34.us, align 2
  %24 = load ptr, ptr %add.ptr.i21, align 8
  %add.ptr2.i36.us = getelementptr inbounds i8, ptr %24, i64 %conv27.us
  store i8 0, ptr %add.ptr2.i36.us, align 1
  %.pre = load i16, ptr %overflows_, align 8
  br label %if.end.us

if.end.us:                                        ; preds = %if.then25.us, %if.then21.us
  %25 = phi i16 [ %.pre, %if.then25.us ], [ %18, %if.then21.us ]
  %dec45.us = add i16 %25, -1
  store i16 %dec45.us, ptr %overflows_, align 8
  br label %for.inc59.us

for.inc59.us:                                     ; preds = %if.end.us, %if.then13.us, %if.then55.us, %if.then50.us
  %inc60.us = add nuw nsw i32 %bucket.047.us, 1
  %exitcond56.not = icmp eq i32 %inc60.us, %smax
  br i1 %exitcond56.not, label %for.cond.while.cond.loopexit_crit_edge.us, label %for.body.us, !llvm.loop !8

for.cond5.preheader.us:                           ; preds = %for.body.us
  %26 = load i16, ptr %overflows_, align 8
  %cmp744.us = icmp sgt i16 %26, 0
  br i1 %cmp744.us, label %for.body8.lr.ph.us, label %if.then50.us

for.body8.lr.ph.us:                               ; preds = %for.cond5.preheader.us
  %conv6.us = zext nneg i16 %26 to i64
  %27 = load ptr, ptr %add.ptr.i, align 8
  br label %for.body8.us

for.cond.while.cond.loopexit_crit_edge.us:        ; preds = %for.inc59.us
  %28 = load i32, ptr %baselineCount_, align 4
  %cmp.us = icmp eq i32 %28, 0
  br i1 %cmp.us, label %while.body.us, label %while.end, !llvm.loop !9

while.end:                                        ; preds = %for.cond.while.cond.loopexit_crit_edge.us, %entry
  ret void
}